ARM GAS  C:\Users\HENRYK~1\AppData\Local\Temp\ccEXXQwQ.s 			page 1


   1              		.cpu cortex-m0
   2              		.fpu softvfp
   3              		.eabi_attribute 20, 1
   4              		.eabi_attribute 21, 1
   5              		.eabi_attribute 23, 3
   6              		.eabi_attribute 24, 1
   7              		.eabi_attribute 25, 1
   8              		.eabi_attribute 26, 1
   9              		.eabi_attribute 30, 1
  10              		.eabi_attribute 34, 0
  11              		.eabi_attribute 18, 4
  12              		.code	16
  13              		.file	"main.c"
  14              		.text
  15              	.Ltext0:
  16              		.cfi_sections	.debug_frame
  17              		.section	.text.main,"ax",%progbits
  18              		.align	2
  19              		.global	main
  20              		.code	16
  21              		.thumb_func
  22              		.type	main, %function
  23              	main:
  24              	.LFB35:
  25              		.file 1 ".\\main.c"
   1:.\main.c      **** /* ========================================
   2:.\main.c      ****  *
   3:.\main.c      ****  * Copyright YOUR COMPANY, THE YEAR
   4:.\main.c      ****  * All Rights Reserved
   5:.\main.c      ****  * UNPUBLISHED, LICENSED SOFTWARE.
   6:.\main.c      ****  *
   7:.\main.c      ****  * CONFIDENTIAL AND PROPRIETARY INFORMATION
   8:.\main.c      ****  * WHICH IS THE PROPERTY OF your company.
   9:.\main.c      ****  *
  10:.\main.c      ****  * ========================================
  11:.\main.c      **** */
  12:.\main.c      **** #include <project.h>
  13:.\main.c      **** #include <stdint.h>
  14:.\main.c      **** #include <stdlib.h>
  15:.\main.c      **** #include <stdio.h>
  16:.\main.c      **** #include <strings.h>
  17:.\main.c      **** 
  18:.\main.c      **** #define INTERRUPT_MASK 0x03
  19:.\main.c      **** #define RISING_EDGE 0x01
  20:.\main.c      **** #define FALLING_EDGE 0x02
  21:.\main.c      **** 
  22:.\main.c      **** int main()
  23:.\main.c      **** {
  26              		.loc 1 23 0
  27              		.cfi_startproc
  28 0000 70B5     		push	{r4, r5, r6, lr}
  29              		.cfi_def_cfa_offset 16
  30              		.cfi_offset 4, -16
  31              		.cfi_offset 5, -12
  32              		.cfi_offset 6, -8
  33              		.cfi_offset 14, -4
  34 0002 86B0     		sub	sp, sp, #24
ARM GAS  C:\Users\HENRYK~1\AppData\Local\Temp\ccEXXQwQ.s 			page 2


  35              		.cfi_def_cfa_offset 40
  24:.\main.c      ****     CyGlobalIntEnable; /* Enable global interrupts. */
  36              		.loc 1 24 0
  37              	@ 24 ".\main.c" 1
  38 0004 62B6     		CPSIE   i
  39              	@ 0 "" 2
  25:.\main.c      **** 
  26:.\main.c      ****     char buffer[20] = {0};
  40              		.loc 1 26 0
  41              		.code	16
  42 0006 0023     		mov	r3, #0
  43 0008 0193     		str	r3, [sp, #4]
  44 000a 0293     		str	r3, [sp, #8]
  45 000c 0393     		str	r3, [sp, #12]
  46 000e 0493     		str	r3, [sp, #16]
  47 0010 0593     		str	r3, [sp, #20]
  48              	.LVL0:
  27:.\main.c      ****     
  28:.\main.c      ****     /*Variable to save temporary data*/
  29:.\main.c      ****     uint32 regVal = 0x00u;
  30:.\main.c      ****     
  31:.\main.c      ****     /*Flag to switch interrupt type*/
  32:.\main.c      ****     uint8 edgeFlag = 0x00u;
  33:.\main.c      ****     
  34:.\main.c      ****     /* Place your initialization/startup code here (e.g. MyInst_Start()) */
  35:.\main.c      ****     UART_Start();
  49              		.loc 1 35 0
  50 0012 FFF7FEFF 		bl	UART_Start
  51              	.LVL1:
  36:.\main.c      ****     
  37:.\main.c      ****     UART_UartPutString("PSoC COM ON!\n\r");
  52              		.loc 1 37 0
  53 0016 2348     		ldr	r0, .L6
  54 0018 FFF7FEFF 		bl	UART_UartPutString
  55              	.LVL2:
  32:.\main.c      ****     
  56              		.loc 1 32 0
  57 001c 0025     		mov	r5, #0
  58              	.LVL3:
  59              	.L5:
  38:.\main.c      **** 
  39:.\main.c      ****     for(;;) 
  40:.\main.c      ****     { 
  41:.\main.c      ****         /* Get value of port interrupt configuration register */ 
  42:.\main.c      ****         regVal = CY_GET_REG32(Pin_Button__INTCFG);
  60              		.loc 1 42 0
  61 001e 224B     		ldr	r3, .L6+4
  62 0020 1C68     		ldr	r4, [r3]
  63              	.LVL4:
  43:.\main.c      ****         sprintf(buffer, "regVal: %lu \n\r", regVal);
  64              		.loc 1 43 0
  65 0022 224E     		ldr	r6, .L6+8
  66 0024 01A8     		add	r0, sp, #4
  67 0026 311C     		mov	r1, r6
  68 0028 221C     		mov	r2, r4
  69 002a FFF7FEFF 		bl	sprintf
  70              	.LVL5:
ARM GAS  C:\Users\HENRYK~1\AppData\Local\Temp\ccEXXQwQ.s 			page 3


  44:.\main.c      ****         UART_UartPutString(buffer);
  71              		.loc 1 44 0
  72 002e 01A8     		add	r0, sp, #4
  73 0030 FFF7FEFF 		bl	UART_UartPutString
  74              	.LVL6:
  45:.\main.c      ****         /* Clear the configuration bits for the Pin_Button. 
  46:.\main.c      ****         Pin_Button_SHIFT is multiplied by 2 as two bits of the interrupt configuration register set
  47:.\main.c      ****         configuration for one pin */ 
  48:.\main.c      ****         regVal &= ~(INTERRUPT_MASK << (Pin_Button_SHIFT * 2));
  75              		.loc 1 48 0
  76 0034 1E4B     		ldr	r3, .L6+12
  77 0036 1C40     		and	r4, r3
  78              	.LVL7:
  49:.\main.c      ****         sprintf(buffer, "regVal: %lu \n\r", regVal);
  79              		.loc 1 49 0
  80 0038 01A8     		add	r0, sp, #4
  81 003a 311C     		mov	r1, r6
  82 003c 221C     		mov	r2, r4
  83 003e FFF7FEFF 		bl	sprintf
  84              	.LVL8:
  50:.\main.c      ****         UART_UartPutString(buffer);
  85              		.loc 1 50 0
  86 0042 01A8     		add	r0, sp, #4
  87 0044 FFF7FEFF 		bl	UART_UartPutString
  88              	.LVL9:
  51:.\main.c      ****         sprintf(buffer, "interrupt mask: %d \n\r", INTERRUPT_MASK);
  89              		.loc 1 51 0
  90 0048 01A8     		add	r0, sp, #4
  91 004a 1A49     		ldr	r1, .L6+16
  92 004c 0322     		mov	r2, #3
  93 004e FFF7FEFF 		bl	sprintf
  94              	.LVL10:
  52:.\main.c      ****         UART_UartPutString(buffer);
  95              		.loc 1 52 0
  96 0052 01A8     		add	r0, sp, #4
  97 0054 FFF7FEFF 		bl	UART_UartPutString
  98              	.LVL11:
  53:.\main.c      ****         sprintf(buffer, "pin button shift: %d \n\r", Pin_Button_SHIFT);
  99              		.loc 1 53 0
 100 0058 01A8     		add	r0, sp, #4
 101 005a 1749     		ldr	r1, .L6+20
 102 005c 0722     		mov	r2, #7
 103 005e FFF7FEFF 		bl	sprintf
 104              	.LVL12:
  54:.\main.c      ****         UART_UartPutString(buffer);
 105              		.loc 1 54 0
 106 0062 01A8     		add	r0, sp, #4
 107 0064 FFF7FEFF 		bl	UART_UartPutString
 108              	.LVL13:
  55:.\main.c      ****         
  56:.\main.c      ****         if(edgeFlag) 
 109              		.loc 1 56 0
 110 0068 002D     		cmp	r5, #0
 111 006a 05D0     		beq	.L2
  57:.\main.c      ****         { 
  58:.\main.c      ****             /* Set P0[7] to GPIO interrupt rising-edge trigger. 
  59:.\main.c      ****             Pin_Button_SHIFT is multiplied by 2 as two bits of the interrupt configuration register
ARM GAS  C:\Users\HENRYK~1\AppData\Local\Temp\ccEXXQwQ.s 			page 4


  60:.\main.c      ****             CY_SET_REG32(Pin_Button__INTCFG, regVal | (RISING_EDGE << (Pin_Button_SHIFT * 2))); 
 112              		.loc 1 60 0
 113 006c 8023     		mov	r3, #128
 114 006e DB01     		lsl	r3, r3, #7
 115 0070 1C43     		orr	r4, r3
 116              	.LVL14:
 117 0072 0D4B     		ldr	r3, .L6+4
 118 0074 1C60     		str	r4, [r3]
 119 0076 04E0     		b	.L3
 120              	.LVL15:
 121              	.L2:
  61:.\main.c      ****         } 
  62:.\main.c      ****         else 
  63:.\main.c      ****         { 
  64:.\main.c      ****             /* Set P0[7] to GPIO interrupt falling-edge trigger. 
  65:.\main.c      ****             Pin_Button_SHIFT is multiplied by 2 as two bits of the interrupt configuration 
  66:.\main.c      ****             register sets the configuration for one pin */ 
  67:.\main.c      ****             CY_SET_REG32(Pin_Button__INTCFG, regVal | (FALLING_EDGE << (Pin_Button_SHIFT * 2))); 
 122              		.loc 1 67 0
 123 0078 8023     		mov	r3, #128
 124 007a 1B02     		lsl	r3, r3, #8
 125 007c 1C43     		orr	r4, r3
 126              	.LVL16:
 127 007e 0A4B     		ldr	r3, .L6+4
 128 0080 1C60     		str	r4, [r3]
 129              	.L3:
  68:.\main.c      ****         } /* Toggle edgeFlag */ edgeFlag ^= 0x01u; 
 130              		.loc 1 68 0
 131 0082 0123     		mov	r3, #1
 132 0084 5D40     		eor	r5, r3
 133              	.LVL17:
 134              	.L4:
  69:.\main.c      ****         /* Wait for Interrupt */ 
  70:.\main.c      ****         while(!(CY_GET_REG32(Pin_Button__INTSTAT) & (0x01u << Pin_Button_SHIFT))) {;} 
 135              		.loc 1 70 0 discriminator 1
 136 0086 0D4B     		ldr	r3, .L6+24
 137 0088 1B68     		ldr	r3, [r3]
 138 008a 1B06     		lsl	r3, r3, #24
 139 008c FBD5     		bpl	.L4
  71:.\main.c      ****         /* Clear interrupt */ 
  72:.\main.c      ****         CY_SET_REG32(Pin_Button__INTSTAT, (0x01u << Pin_Button_SHIFT)); 
 140              		.loc 1 72 0
 141 008e 8022     		mov	r2, #128
 142 0090 0A4B     		ldr	r3, .L6+24
 143 0092 1A60     		str	r2, [r3]
  73:.\main.c      ****         /* Toggle LED */ 
  74:.\main.c      ****         Pin_LED_Write(~Pin_LED_Read()); 
 144              		.loc 1 74 0
 145 0094 FFF7FEFF 		bl	Pin_LED_Read
 146              	.LVL18:
 147 0098 C043     		mvn	r0, r0
 148 009a C0B2     		uxtb	r0, r0
 149 009c FFF7FEFF 		bl	Pin_LED_Write
 150              	.LVL19:
  75:.\main.c      ****     } 
 151              		.loc 1 75 0
 152 00a0 BDE7     		b	.L5
ARM GAS  C:\Users\HENRYK~1\AppData\Local\Temp\ccEXXQwQ.s 			page 5


 153              	.L7:
 154 00a2 C046     		.align	2
 155              	.L6:
 156 00a4 00000000 		.word	.LC0
 157 00a8 0C020440 		.word	1074004492
 158 00ac 10000000 		.word	.LC2
 159 00b0 FF3FFFFF 		.word	-49153
 160 00b4 20000000 		.word	.LC4
 161 00b8 38000000 		.word	.LC6
 162 00bc 10020440 		.word	1074004496
 163              		.cfi_endproc
 164              	.LFE35:
 165              		.size	main, .-main
 166              		.section	.rodata.str1.4,"aMS",%progbits,1
 167              		.align	2
 168              	.LC0:
 169 0000 50536F43 		.ascii	"PSoC COM ON!\012\015\000"
 169      20434F4D 
 169      204F4E21 
 169      0A0D00
 170 000f 00       		.space	1
 171              	.LC2:
 172 0010 72656756 		.ascii	"regVal: %lu \012\015\000"
 172      616C3A20 
 172      256C7520 
 172      0A0D00
 173 001f 00       		.space	1
 174              	.LC4:
 175 0020 696E7465 		.ascii	"interrupt mask: %d \012\015\000"
 175      72727570 
 175      74206D61 
 175      736B3A20 
 175      2564200A 
 176 0036 0000     		.space	2
 177              	.LC6:
 178 0038 70696E20 		.ascii	"pin button shift: %d \012\015\000"
 178      62757474 
 178      6F6E2073 
 178      68696674 
 178      3A202564 
 179              		.text
 180              	.Letext0:
 181              		.file 2 "Generated_Source\\PSoC4/cytypes.h"
 182              		.file 3 "Generated_Source\\PSoC4/UART.h"
 183              		.file 4 "Generated_Source\\PSoC4/UART_SPI_UART.h"
 184              		.file 5 "c:\\program files (x86)\\cypress\\psoc creator\\3.3\\psoc creator\\import\\gnu\\arm\\4.9.
 185              		.file 6 "Generated_Source\\PSoC4/Pin_LED.h"