ARM GAS  C:\Users\HENRYK~1\AppData\Local\Temp\cc9CRwUc.s 			page 1


   1              		.cpu cortex-m0
   2              		.fpu softvfp
   3              		.eabi_attribute 20, 1
   4              		.eabi_attribute 21, 1
   5              		.eabi_attribute 23, 3
   6              		.eabi_attribute 24, 1
   7              		.eabi_attribute 25, 1
   8              		.eabi_attribute 26, 1
   9              		.eabi_attribute 30, 1
  10              		.eabi_attribute 34, 0
  11              		.eabi_attribute 18, 4
  12              		.code	16
  13              		.file	"main.c"
  14              		.text
  15              	.Ltext0:
  16              		.cfi_sections	.debug_frame
  17              		.section	.text.Switch_Debounce_ISR,"ax",%progbits
  18              		.align	2
  19              		.global	Switch_Debounce_ISR
  20              		.code	16
  21              		.thumb_func
  22              		.type	Switch_Debounce_ISR, %function
  23              	Switch_Debounce_ISR:
  24              	.LFB36:
  25              		.file 1 ".\\main.c"
   1:.\main.c      **** /* ========================================
   2:.\main.c      ****  *
   3:.\main.c      ****  * Copyright YOUR COMPANY, THE YEAR
   4:.\main.c      ****  * All Rights Reserved
   5:.\main.c      ****  * UNPUBLISHED, LICENSED SOFTWARE.
   6:.\main.c      ****  *
   7:.\main.c      ****  * CONFIDENTIAL AND PROPRIETARY INFORMATION
   8:.\main.c      ****  * WHICH IS THE PROPERTY OF your company.
   9:.\main.c      ****  *
  10:.\main.c      ****  * ========================================
  11:.\main.c      **** */
  12:.\main.c      **** #include <project.h>
  13:.\main.c      **** #include <stdint.h>
  14:.\main.c      **** #include <stdlib.h>
  15:.\main.c      **** #include <stdio.h>
  16:.\main.c      **** #include <strings.h>
  17:.\main.c      **** 
  18:.\main.c      **** #define INTERRUPT_MASK 0x03
  19:.\main.c      **** #define RISING_EDGE 0x01
  20:.\main.c      **** #define FALLING_EDGE 0x02
  21:.\main.c      **** 
  22:.\main.c      **** #define LED_ON 0u
  23:.\main.c      **** #define LED_OFF 1u
  24:.\main.c      **** 
  25:.\main.c      **** /* UART buffer to store output to console */
  26:.\main.c      **** char buffer[20] = {0};
  27:.\main.c      **** 
  28:.\main.c      **** /* LED state variable */
  29:.\main.c      **** uint8 ledstate = 0u;
  30:.\main.c      **** 
  31:.\main.c      **** /* Initialize the interrupt fuction prototype */
  32:.\main.c      **** CY_ISR_PROTO(Switch_Debounce_ISR); 
ARM GAS  C:\Users\HENRYK~1\AppData\Local\Temp\cc9CRwUc.s 			page 2


  33:.\main.c      **** 
  34:.\main.c      **** 
  35:.\main.c      **** int main()
  36:.\main.c      **** {
  37:.\main.c      ****     uint32 regVal = 0x00u;
  38:.\main.c      ****       
  39:.\main.c      ****     
  40:.\main.c      ****     /* Set up interrupt vector address for function */
  41:.\main.c      ****     gpio_isr_StartEx(Switch_Debounce_ISR);
  42:.\main.c      ****     
  43:.\main.c      ****     /* Get value of port interrupt configuration register */ 
  44:.\main.c      ****     regVal = CY_GET_REG32(shifter_switches__INTCFG);
  45:.\main.c      ****     
  46:.\main.c      ****     /* Clear the configuration bits for the Pin_Button. 
  47:.\main.c      ****     Pin_Button_SHIFT is multiplied by 2 as two bits of the interrupt configuration register sets th
  48:.\main.c      ****     configuration for one pin */ 
  49:.\main.c      ****     //regVal &= ~(INTERRUPT_MASK << (shifter_switches_SHIFT * 2));
  50:.\main.c      ****     
  51:.\main.c      ****     //CY_SET_REG32(shifter_switches__INTCFG, regVal | (FALLING_EDGE << (shifter_switches_SHIFT * 2)
  52:.\main.c      ****     
  53:.\main.c      ****     CyGlobalIntEnable; /* Enable global interrupts. */
  54:.\main.c      **** 
  55:.\main.c      ****     /* Place your initialization/startup code here (e.g. MyInst_Start()) */
  56:.\main.c      ****     UART_Start();  
  57:.\main.c      ****     UART_UartPutString("PSoC COM ON!\n\r");
  58:.\main.c      **** 
  59:.\main.c      ****     for(;;) 
  60:.\main.c      ****     {
  61:.\main.c      ****         Pin_LED_Write(LED_OFF);
  62:.\main.c      ****         //sprintf(buffer, "%lu\n\r", CY_SYS_PINS_READ_PIN(shifter_switches__PS, shifter_switches_1_
  63:.\main.c      ****         //UART_UartPutString(buffer);
  64:.\main.c      ****     } 
  65:.\main.c      **** }
  66:.\main.c      **** 
  67:.\main.c      **** CY_ISR(Switch_Debounce_ISR)
  68:.\main.c      **** {
  26              		.loc 1 68 0
  27              		.cfi_startproc
  28 0000 08B5     		push	{r3, lr}
  29              		.cfi_def_cfa_offset 8
  30              		.cfi_offset 3, -8
  31              		.cfi_offset 14, -4
  69:.\main.c      ****     gpio_isr_ClearPending();
  32              		.loc 1 69 0
  33 0002 FFF7FEFF 		bl	gpio_isr_ClearPending
  34              	.LVL0:
  70:.\main.c      ****     
  71:.\main.c      ****     //shifter_switches_ClearInterrupt();
  72:.\main.c      ****     
  73:.\main.c      ****     /* Turn On the LED */
  74:.\main.c      ****     //Pin_LED_Write(LED_ON);
  75:.\main.c      **** 
  76:.\main.c      ****     /* Cause nested software interrupt after 1000 ms */
  77:.\main.c      ****     //CyDelay(1000u);
  78:.\main.c      ****     //CyIntSetPending(NESTED_ISR);
  79:.\main.c      **** 
  80:.\main.c      ****     /* Turn Off the LED */
ARM GAS  C:\Users\HENRYK~1\AppData\Local\Temp\cc9CRwUc.s 			page 3


  81:.\main.c      ****     //Pin_LED_Write(LED_OFF);
  82:.\main.c      ****     
  83:.\main.c      ****     if(shifter_switches_INTSTAT & (1u << shifter_switches_SHIFT))
  35              		.loc 1 83 0
  36 0006 054B     		ldr	r3, .L3
  37 0008 1B68     		ldr	r3, [r3]
  38 000a DB07     		lsl	r3, r3, #31
  39 000c 02D5     		bpl	.L2
  84:.\main.c      ****     {
  85:.\main.c      ****         UART_UartPutString("SHIFT UP!\n\r");
  40              		.loc 1 85 0
  41 000e 0448     		ldr	r0, .L3+4
  42 0010 FFF7FEFF 		bl	UART_UartPutString
  43              	.LVL1:
  44              	.L2:
  86:.\main.c      ****     }
  87:.\main.c      ****     shifter_switches_ClearInterrupt();
  45              		.loc 1 87 0
  46 0014 FFF7FEFF 		bl	shifter_switches_ClearInterrupt
  47              	.LVL2:
  88:.\main.c      ****     
  89:.\main.c      **** }
  48              		.loc 1 89 0
  49              		@ sp needed
  50 0018 08BD     		pop	{r3, pc}
  51              	.L4:
  52 001a C046     		.align	2
  53              	.L3:
  54 001c 10000440 		.word	1074003984
  55 0020 00000000 		.word	.LC0
  56              		.cfi_endproc
  57              	.LFE36:
  58              		.size	Switch_Debounce_ISR, .-Switch_Debounce_ISR
  59              		.section	.text.main,"ax",%progbits
  60              		.align	2
  61              		.global	main
  62              		.code	16
  63              		.thumb_func
  64              		.type	main, %function
  65              	main:
  66              	.LFB35:
  36:.\main.c      ****     uint32 regVal = 0x00u;
  67              		.loc 1 36 0
  68              		.cfi_startproc
  69 0000 08B5     		push	{r3, lr}
  70              		.cfi_def_cfa_offset 8
  71              		.cfi_offset 3, -8
  72              		.cfi_offset 14, -4
  73              	.LVL3:
  41:.\main.c      ****     
  74              		.loc 1 41 0
  75 0002 0748     		ldr	r0, .L7
  76 0004 FFF7FEFF 		bl	gpio_isr_StartEx
  77              	.LVL4:
  44:.\main.c      ****     
  78              		.loc 1 44 0
  79 0008 064B     		ldr	r3, .L7+4
ARM GAS  C:\Users\HENRYK~1\AppData\Local\Temp\cc9CRwUc.s 			page 4


  80 000a 1B68     		ldr	r3, [r3]
  81              	.LVL5:
  53:.\main.c      **** 
  82              		.loc 1 53 0
  83              	@ 53 ".\main.c" 1
  84 000c 62B6     		CPSIE   i
  85              	@ 0 "" 2
  56:.\main.c      ****     UART_UartPutString("PSoC COM ON!\n\r");
  86              		.loc 1 56 0
  87              		.code	16
  88 000e FFF7FEFF 		bl	UART_Start
  89              	.LVL6:
  57:.\main.c      **** 
  90              		.loc 1 57 0
  91 0012 0548     		ldr	r0, .L7+8
  92 0014 FFF7FEFF 		bl	UART_UartPutString
  93              	.LVL7:
  94              	.L6:
  61:.\main.c      ****         //sprintf(buffer, "%lu\n\r", CY_SYS_PINS_READ_PIN(shifter_switches__PS, shifter_switches_1_
  95              		.loc 1 61 0 discriminator 1
  96 0018 0120     		mov	r0, #1
  97 001a FFF7FEFF 		bl	Pin_LED_Write
  98              	.LVL8:
  64:.\main.c      **** }
  99              		.loc 1 64 0 discriminator 1
 100 001e FBE7     		b	.L6
 101              	.L8:
 102              		.align	2
 103              	.L7:
 104 0020 00000000 		.word	Switch_Debounce_ISR
 105 0024 0C000440 		.word	1074003980
 106 0028 0C000000 		.word	.LC3
 107              		.cfi_endproc
 108              	.LFE35:
 109              		.size	main, .-main
 110              		.global	ledstate
 111              		.global	buffer
 112              		.section	.rodata.str1.4,"aMS",%progbits,1
 113              		.align	2
 114              	.LC0:
 115 0000 53484946 		.ascii	"SHIFT UP!\012\015\000"
 115      54205550 
 115      210A0D00 
 116              	.LC3:
 117 000c 50536F43 		.ascii	"PSoC COM ON!\012\015\000"
 117      20434F4D 
 117      204F4E21 
 117      0A0D00
 118 001b 00       		.bss
 119              		.align	2
 120              		.type	ledstate, %object
 121              		.size	ledstate, 1
 122              	ledstate:
 123 0000 00       		.space	1
 124 0001 000000   		.space	3
 125              		.type	buffer, %object
 126              		.size	buffer, 20
ARM GAS  C:\Users\HENRYK~1\AppData\Local\Temp\cc9CRwUc.s 			page 5


 127              	buffer:
 128 0004 00000000 		.space	20
 128      00000000 
 128      00000000 
 128      00000000 
 128      00000000 
 129              		.text
 130              	.Letext0:
 131              		.file 2 "Generated_Source\\PSoC4/cytypes.h"
 132              		.file 3 "Generated_Source\\PSoC4/UART_SPI_UART.h"
 133              		.file 4 "Generated_Source\\PSoC4/gpio_isr.h"
 134              		.file 5 "Generated_Source\\PSoC4/UART.h"
 135              		.file 6 "Generated_Source\\PSoC4/shifter_switches.h"
 136              		.file 7 "Generated_Source\\PSoC4/Pin_LED.h"